(dp1
S'auto_check_upstream'
p2
S'CHAR(1)'
p3
sS'name'
p4
S'CHAR(32)'
p5
sS'mversion'
p6
S'CHAR(32)'
p7
sS'srcname'
p8
S'CHAR(32)'
p9
sS'version'
p10
S'CHAR(32)'
p11
sS'release'
p12
S'CHAR(32)'
p13
sS'id'
p14
S'INTEGER PRIMARY KEY AUTOINCREMENT'
p15
sS'owner_id'
p16
S'REFERENCES users(id) ON DELETE CASCADE'
p17
s.