(dp1
S'status'
p2
S'CHAR(32)'
p3
sS'timestamp'
p4
S'TIMESTAMP'
p5
sS'uri'
p6
S'TEXT'
p7
sS'version'
p8
S'CHAR(32)'
p9
sS'source_id'
p10
S'REFERENCES sources(id) ON DELETE CASCADE'
p11
sS'module_id'
p12
S'REFERENCES modules(id) ON DELETE CASCADE'
p13
sS'id'
p14
S'INTEGER PRIMARY KEY AUTOINCREMENT'
p15
s.