(dp1
S'name'
p2
S'CHAR(32)'
p3
sS'fullname'
p4
S'CHAR(32)'
p5
sS'email'
p6
S'CHAR(32)'
p7
sS'rule'
p8
S'REFERENCES rules(id) ON DELETE CASCADE'
p9
sS'id'
p10
S'INTEGER PRIMARY KEY AUTOINCREMENT'
p11
s.