(dp1
S'id'
p2
S'INTEGER PRIMARY KEY AUTOINCREMENT'
p3
sS'fullname'
p4
S'CHAR(32)'
p5
sS'name'
p6
S'CHAR(32)'
p7
sS'rule'
p8
S'REFERENCES rules(id) ON DELETE CASCADE'
p9
sS'email'
p10
S'CHAR(32)'
p11
s.