(dp1
S'release'
p2
S'CHAR(32)'
p3
sS'owner_id'
p4
S'REFERENCES users(id) ON DELETE CASCADE'
p5
sS'version'
p6
S'CHAR(32)'
p7
sS'id'
p8
S'INTEGER PRIMARY KEY AUTOINCREMENT'
p9
sS'name'
p10
S'CHAR(32)'
p11
s.