(dp1
S'name'
p2
S'CHAR(32)'
p3
sS'mversion'
p4
S'CHAR(32)'
p5
sS'srcname'
p6
S'CHAR(32)'
p7
sS'version'
p8
S'CHAR(32)'
p9
sS'release'
p10
S'CHAR(32)'
p11
sS'id'
p12
S'INTEGER PRIMARY KEY AUTOINCREMENT'
p13
sS'owner_id'
p14
S'REFERENCES users(id) ON DELETE CASCADE'
p15
s.