(dp1
S'timestamp'
p2
S'TIMESTAMP'
p3
sS'uri'
p4
S'TEXT'
p5
sS'version'
p6
S'CHAR(32)'
p7
sS'source_id'
p8
S'REFERENCES sources(id) ON DELETE CASCADE'
p9
sS'module_id'
p10
S'REFERENCES modules(id) ON DELETE CASCADE'
p11
sS'id'
p12
S'INTEGER PRIMARY KEY AUTOINCREMENT'
p13
s.